; Function Attrs: nounwind uwtable
define ptr @l_Lean_RBMap_find_x21___rarg(ptr noundef %0, ptr noundef %1, ptr noundef %2, ptr noundef %3) #1 {
  %5 = tail call ptr @l_Lean_RBNode_find___rarg(ptr noundef %0, ptr nonnull poison, ptr noundef %2, ptr noundef %3)
  %6 = ptrtoint ptr %5 to i64
  %7 = and i64 %6, 1
  %.not.i16 = icmp eq i64 %7, 0
  br i1 %.not.i16, label %11, label %8

8:                                                ; preds = %4
  %9 = lshr i64 %6, 1
  %10 = trunc i64 %9 to i32
  br label %lean_obj_tag.exit

11:                                               ; preds = %4
  %12 = getelementptr i8, ptr %5, i64 4
  %.val.i = load i32, ptr %12, align 4
  %13 = lshr i32 %.val.i, 24
  br label %lean_obj_tag.exit

lean_obj_tag.exit:                                ; preds = %8, %11
  %.0.i = phi i32 [ %10, %8 ], [ %13, %11 ]
  %14 = icmp eq i32 %.0.i, 0
  br i1 %14, label %15, label %18

15:                                               ; preds = %lean_obj_tag.exit
  %16 = load ptr, ptr @l_Lean_RBMap_find_x21___rarg___closed__3, align 8, !tbaa !10
  %17 = tail call ptr @l_panic___rarg(ptr noundef %1, ptr noundef %16) #9
  br label %lean_dec.exit

18:                                               ; preds = %lean_obj_tag.exit
  %19 = ptrtoint ptr %1 to i64
  %20 = and i64 %19, 1
  %.not = icmp eq i64 %20, 0
  br i1 %.not, label %21, label %lean_dec.exit13

21:                                               ; preds = %18
  %22 = load i32, ptr %1, align 4, !tbaa !4
  %23 = icmp sgt i32 %22, 1
  br i1 %23, label %24, label %26, !prof !9

24:                                               ; preds = %21
  %25 = add nsw i32 %22, -1
  store i32 %25, ptr %1, align 4, !tbaa !4
  br label %lean_dec.exit13

26:                                               ; preds = %21
  %.not.i = icmp eq i32 %22, 0
  br i1 %.not.i, label %lean_dec.exit13, label %27

27:                                               ; preds = %26
  tail call void @lean_dec_ref_cold(ptr noundef nonnull %1) #9
  br label %lean_dec.exit13

lean_dec.exit13:                                  ; preds = %27, %26, %24, %18
  %28 = getelementptr inbounds nuw i8, ptr %5, i64 8
  %29 = load ptr, ptr %28, align 8, !tbaa !10
  %30 = ptrtoint ptr %29 to i64
  %31 = and i64 %30, 1
  %.not19 = icmp eq i64 %31, 0
  br i1 %.not19, label %32, label %lean_inc.exit

32:                                               ; preds = %lean_dec.exit13
  %.val.i17 = load i32, ptr %29, align 4, !tbaa !4
  %33 = icmp sgt i32 %.val.i17, 0
  br i1 %33, label %34, label %36, !prof !9

34:                                               ; preds = %32
  %35 = add nuw i32 %.val.i17, 1
  store i32 %35, ptr %29, align 4, !tbaa !4
  br label %lean_inc.exit

36:                                               ; preds = %32
  %.not.i18 = icmp eq i32 %.val.i17, 0
  br i1 %.not.i18, label %lean_inc.exit, label %37

37:                                               ; preds = %36
  tail call void @lean_inc_ref_cold(ptr noundef nonnull %29) #9
  br label %lean_inc.exit

lean_inc.exit:                                    ; preds = %37, %36, %34, %lean_dec.exit13
  br i1 %.not.i16, label %38, label %lean_dec.exit

38:                                               ; preds = %lean_inc.exit
  %39 = load i32, ptr %5, align 4, !tbaa !4
  %40 = icmp sgt i32 %39, 1
  br i1 %40, label %41, label %43, !prof !9

41:                                               ; preds = %38
  %42 = add nsw i32 %39, -1
  store i32 %42, ptr %5, align 4, !tbaa !4
  br label %lean_dec.exit

43:                                               ; preds = %38
  %.not.i14 = icmp eq i32 %39, 0
  br i1 %.not.i14, label %lean_dec.exit, label %44

44:                                               ; preds = %43
  tail call void @lean_dec_ref_cold(ptr noundef nonnull %5) #9
  br label %lean_dec.exit

lean_dec.exit:                                    ; preds = %lean_inc.exit, %41, %43, %44, %15
  %.0 = phi ptr [ %17, %15 ], [ %29, %44 ], [ %29, %43 ], [ %29, %41 ], [ %29, %lean_inc.exit ]
  ret ptr %.0
}